target datalayout = "e-m:e-p270:32:32-p271:32:32-p272:64:64-i64:64-i128:128-f80:128-n8:16:32:64-S128"
target triple = "x86_64-pc-linux-gnu"

%"class.std::__cxx11::basic_string" = type { %"struct.std::__cxx11::basic_string<char>::_Alloc_hider", i64, %union.anon }
%"struct.std::__cxx11::basic_string<char>::_Alloc_hider" = type { ptr }
%union.anon = type { i64, [8 x i8] }
%class.cmCPackGenerator = type { ptr, i32, %"class.std::__cxx11::basic_string", %"class.std::__cxx11::basic_string", %"class.std::vector", %"class.std::__cxx11::basic_string", %"class.std::vector", %"class.std::vector.3", %"class.std::map", %"class.std::map.11", %"class.std::map.16", i32, ptr, i8, i8, ptr }
%"class.std::vector" = type { %"struct.std::_Vector_base" }
%"struct.std::_Vector_base" = type { %"struct.std::_Vector_base<std::__cxx11::basic_string<char>, std::allocator<std::__cxx11::basic_string<char>>>::_Vector_impl" }
%"struct.std::_Vector_base<std::__cxx11::basic_string<char>, std::allocator<std::__cxx11::basic_string<char>>>::_Vector_impl" = type { %"struct.std::_Vector_base<std::__cxx11::basic_string<char>, std::allocator<std::__cxx11::basic_string<char>>>::_Vector_impl_data" }
%"struct.std::_Vector_base<std::__cxx11::basic_string<char>, std::allocator<std::__cxx11::basic_string<char>>>::_Vector_impl_data" = type { ptr, ptr, ptr }
%"class.std::vector.3" = type { %"struct.std::_Vector_base.4" }
%"struct.std::_Vector_base.4" = type { %"struct.std::_Vector_base<cmCPackInstallCMakeProject, std::allocator<cmCPackInstallCMakeProject>>::_Vector_impl" }
%"struct.std::_Vector_base<cmCPackInstallCMakeProject, std::allocator<cmCPackInstallCMakeProject>>::_Vector_impl" = type { %"struct.std::_Vector_base<cmCPackInstallCMakeProject, std::allocator<cmCPackInstallCMakeProject>>::_Vector_impl_data" }
%"struct.std::_Vector_base<cmCPackInstallCMakeProject, std::allocator<cmCPackInstallCMakeProject>>::_Vector_impl_data" = type { ptr, ptr, ptr }
%"class.std::map" = type { %"class.std::_Rb_tree" }
%"class.std::_Rb_tree" = type { %"struct.std::_Rb_tree<std::__cxx11::basic_string<char>, std::pair<const std::__cxx11::basic_string<char>, cmCPackInstallationType>, std::_Select1st<std::pair<const std::__cxx11::basic_string<char>, cmCPackInstallationType>>, std::less<std::__cxx11::basic_string<char>>>::_Rb_tree_impl" }
%"struct.std::_Rb_tree<std::__cxx11::basic_string<char>, std::pair<const std::__cxx11::basic_string<char>, cmCPackInstallationType>, std::_Select1st<std::pair<const std::__cxx11::basic_string<char>, cmCPackInstallationType>>, std::less<std::__cxx11::basic_string<char>>>::_Rb_tree_impl" = type { %"struct.std::_Rb_tree_key_compare", %"struct.std::_Rb_tree_header" }
%"struct.std::_Rb_tree_key_compare" = type { %"struct.std::less" }
%"struct.std::less" = type { i8 }
%"struct.std::_Rb_tree_header" = type { %"struct.std::_Rb_tree_node_base", i64 }
%"struct.std::_Rb_tree_node_base" = type { i32, ptr, ptr, ptr }
%"class.std::map.11" = type { %"class.std::_Rb_tree.12" }
%"class.std::_Rb_tree.12" = type { %"struct.std::_Rb_tree<std::__cxx11::basic_string<char>, std::pair<const std::__cxx11::basic_string<char>, cmCPackComponent>, std::_Select1st<std::pair<const std::__cxx11::basic_string<char>, cmCPackComponent>>, std::less<std::__cxx11::basic_string<char>>>::_Rb_tree_impl" }
%"struct.std::_Rb_tree<std::__cxx11::basic_string<char>, std::pair<const std::__cxx11::basic_string<char>, cmCPackComponent>, std::_Select1st<std::pair<const std::__cxx11::basic_string<char>, cmCPackComponent>>, std::less<std::__cxx11::basic_string<char>>>::_Rb_tree_impl" = type { %"struct.std::_Rb_tree_key_compare", %"struct.std::_Rb_tree_header" }
%"class.std::map.16" = type { %"class.std::_Rb_tree.17" }
%"class.std::_Rb_tree.17" = type { %"struct.std::_Rb_tree<std::__cxx11::basic_string<char>, std::pair<const std::__cxx11::basic_string<char>, cmCPackComponentGroup>, std::_Select1st<std::pair<const std::__cxx11::basic_string<char>, cmCPackComponentGroup>>, std::less<std::__cxx11::basic_string<char>>>::_Rb_tree_impl" }
%"struct.std::_Rb_tree<std::__cxx11::basic_string<char>, std::pair<const std::__cxx11::basic_string<char>, cmCPackComponentGroup>, std::_Select1st<std::pair<const std::__cxx11::basic_string<char>, cmCPackComponentGroup>>, std::less<std::__cxx11::basic_string<char>>>::_Rb_tree_impl" = type { %"struct.std::_Rb_tree_key_compare", %"struct.std::_Rb_tree_header" }
%class.cmValue = type { ptr }

; Function Attrs: mustprogress nounwind uwtable
define linkonce_odr dso_local noundef zeroext i1 @_ZNK7cmValue7IsEmptyEv(ptr noundef nonnull align 8 dereferenceable(8) %0) #4 comdat align 2 {
  %2 = alloca ptr, align 8
  store ptr %0, ptr %2, align 8
  %3 = load ptr, ptr %2, align 8
  %4 = getelementptr inbounds %class.cmValue, ptr %3, i32 0, i32 0
  %5 = load ptr, ptr %4, align 8
  %6 = icmp eq ptr %5, null
  br i1 %6, label %11, label %7

7:                                                ; preds = %1
  %8 = getelementptr inbounds %class.cmValue, ptr %3, i32 0, i32 0
  %9 = load ptr, ptr %8, align 8
  %10 = call noundef zeroext i1 @_ZNKSt7__cxx1112basic_stringIcSt11char_traitsIcESaIcEE5emptyEv(ptr noundef nonnull align 8 dereferenceable(32) %9) #3
  br label %11

11:                                               ; preds = %7, %1
  %12 = phi i1 [ true, %1 ], [ %10, %7 ]
  ret i1 %12
}

; Function Attrs: mustprogress nounwind uwtable
define linkonce_odr dso_local noundef zeroext i1 @_Z10cmNonempty7cmValue(ptr %0) #4 comdat {
  %2 = alloca %class.cmValue, align 8
  %3 = getelementptr inbounds %class.cmValue, ptr %2, i32 0, i32 0
  store ptr %0, ptr %3, align 8
  %4 = call noundef zeroext i1 @_ZNK7cmValue7IsEmptyEv(ptr noundef nonnull align 8 dereferenceable(8) %2) #3
  %5 = xor i1 %4, true
  ret i1 %5
}

; Function Attrs: mustprogress uwtable
define linkonce_odr dso_local void @_ZN16cmCPackGenerator19StoreOptionIfNotSetIPKcEEvRKNSt7__cxx1112basic_stringIcSt11char_traitsIcESaIcEEET_(ptr noundef nonnull align 8 dereferenceable(360) %0, ptr noundef nonnull align 8 dereferenceable(32) %1, ptr noundef %2) #6 comdat align 2 {
  %4 = alloca ptr, align 8
  %5 = alloca ptr, align 8
  %6 = alloca ptr, align 8
  %7 = alloca %class.cmValue, align 8
  %8 = alloca %class.cmValue, align 8
  store ptr %0, ptr %4, align 8
  store ptr %1, ptr %5, align 8
  store ptr %2, ptr %6, align 8
  %9 = load ptr, ptr %4, align 8
  %10 = getelementptr inbounds %class.cmCPackGenerator, ptr %9, i32 0, i32 15
  %11 = load ptr, ptr %10, align 8
  %12 = load ptr, ptr %5, align 8
  %13 = call ptr @_ZNK10cmMakefile13GetDefinitionERKNSt7__cxx1112basic_stringIcSt11char_traitsIcESaIcEEE(ptr noundef nonnull align 8 dereferenceable(3520) %11, ptr noundef nonnull align 8 dereferenceable(32) %12)
  %14 = getelementptr inbounds %class.cmValue, ptr %7, i32 0, i32 0
  store ptr %13, ptr %14, align 8
  call void @llvm.memcpy.p0.p0.i64(ptr align 8 %8, ptr align 8 %7, i64 8, i1 false)
  %15 = getelementptr inbounds %class.cmValue, ptr %8, i32 0, i32 0
  %16 = load ptr, ptr %15, align 8
  %17 = call noundef zeroext i1 @_Z10cmNonempty7cmValue(ptr %16)
  br i1 %17, label %18, label %19

18:                                               ; preds = %3
  br label %22

19:                                               ; preds = %3
  %20 = load ptr, ptr %5, align 8
  %21 = load ptr, ptr %6, align 8
  call void @_ZN16cmCPackGenerator11StoreOptionIPKcEEvRKNSt7__cxx1112basic_stringIcSt11char_traitsIcESaIcEEET_(ptr noundef nonnull align 8 dereferenceable(360) %9, ptr noundef nonnull align 8 dereferenceable(32) %20, ptr noundef %21)
  br label %22

22:                                               ; preds = %19, %18
  ret void
}

; Function Attrs: mustprogress uwtable
define dso_local void @_ZN16cmCPackGenerator17SetOptionIfNotSetERKNSt7__cxx1112basic_stringIcSt11char_traitsIcESaIcEEEPKc(ptr noundef nonnull align 8 dereferenceable(360) %0, ptr noundef nonnull align 8 dereferenceable(32) %1, ptr noundef %2) #6 align 2 {
  %4 = alloca ptr, align 8
  %5 = alloca ptr, align 8
  %6 = alloca ptr, align 8
  store ptr %0, ptr %4, align 8
  store ptr %1, ptr %5, align 8
  store ptr %2, ptr %6, align 8
  %7 = load ptr, ptr %4, align 8
  %8 = load ptr, ptr %5, align 8
  %9 = load ptr, ptr %6, align 8
  call void @_ZN16cmCPackGenerator19StoreOptionIfNotSetIPKcEEvRKNSt7__cxx1112basic_stringIcSt11char_traitsIcESaIcEEET_(ptr noundef nonnull align 8 dereferenceable(360) %7, ptr noundef nonnull align 8 dereferenceable(32) %8, ptr noundef %9)
  ret void
}